; Function Attrs: mustprogress uwtable
define noundef zeroext i1 @_ZN6google8protobuf24SimpleDescriptorDatabase9MaybeCopyEPKNS0_19FileDescriptorProtoEPS2_(ptr nocapture noundef nonnull readnone align 8 dereferenceable(104) %this, ptr noundef %file, ptr noundef %output) local_unnamed_addr #6 align 2 {
entry:
  %cmp = icmp ne ptr %file, null
  br i1 %cmp, label %if.end, label %return

if.end:                                           ; preds = %entry
  tail call void @_ZN6google8protobuf19FileDescriptorProto8CopyFromERKS1_(ptr noundef nonnull align 8 dereferenceable(224) %output, ptr noundef nonnull align 8 dereferenceable(224) %file)
  br label %return

return:                                           ; preds = %entry, %if.end
  ret i1 %cmp
}